; Function Attrs: mustprogress nofree norecurse nosync nounwind willreturn memory(readwrite, inaccessiblemem: none) uwtable
define hidden void @_ZN7Imf_3_214RgbaOutputFile5ToYca27duplicateSecondToLastBufferEv(ptr nocapture noundef nonnull align 8 dereferenceable(352) %this) local_unnamed_addr #11 align 2 {
entry:
  %_buf.i = getelementptr inbounds i8, ptr %this, i64 96
  %0 = load ptr, ptr %_buf.i, align 8
  %scevgep.i = getelementptr inbounds i8, ptr %this, i64 104
  tail call void @llvm.memmove.p0.p0.i64(ptr noundef nonnull align 8 dereferenceable(208) %_buf.i, ptr noundef nonnull align 8 dereferenceable(208) %scevgep.i, i64 208, i1 false)
  %arrayidx8.i = getelementptr inbounds i8, ptr %this, i64 304
  store ptr %0, ptr %arrayidx8.i, align 8
  %arrayidx3 = getelementptr inbounds i8, ptr %this, i64 288
  %1 = load ptr, ptr %arrayidx3, align 8
  %_width = getelementptr inbounds i8, ptr %this, i64 56
  %2 = load i32, ptr %_width, align 8
  %conv = sext i32 %2 to i64
  %mul = shl nsw i64 %conv, 3
  tail call void @llvm.memcpy.p0.p0.i64(ptr align 2 %0, ptr align 2 %1, i64 %mul, i1 false)
  ret void
}